; Function Attrs: mustprogress nounwind uwtable
define void @_ZN2cv10AsyncArray7releaseEv(ptr noundef nonnull align 8 captures(none) dereferenceable(8) %0) local_unnamed_addr #4 align 2 {
  %2 = load ptr, ptr %0, align 8, !tbaa !3
  store ptr null, ptr %0, align 8, !tbaa !3
  %.not = icmp eq ptr %2, null
  br i1 %.not, label %_ZN2cv10AsyncArray4Impl13releaseFutureEv.exit, label %3

3:                                                ; preds = %1
  %4 = getelementptr inbounds nuw i8, ptr %2, i64 4
  %5 = atomicrmw add ptr %4, i32 -1 acq_rel, align 4
  %6 = atomicrmw add ptr %2, i32 -1 acq_rel, align 8
  %.not.i = icmp eq i32 %6, 1
  br i1 %.not.i, label %7, label %_ZN2cv10AsyncArray4Impl13releaseFutureEv.exit

7:                                                ; preds = %3
  tail call void @_ZN2cv10AsyncArray4ImplD2Ev(ptr noundef nonnull align 8 dereferenceable(314) %2) #23
  tail call void @_ZdlPv(ptr noundef nonnull align 8 dereferenceable(314) %2) #24
  br label %_ZN2cv10AsyncArray4Impl13releaseFutureEv.exit

_ZN2cv10AsyncArray4Impl13releaseFutureEv.exit:    ; preds = %7, %3, %1
  ret void
}